target datalayout = "e-m:e-p270:32:32-p271:32:32-p272:64:64-i64:64-i128:128-f80:128-n8:16:32:64-S128"
target triple = "x86_64-pc-linux-gnu"

%struct._wmem_block_allocator_t = type { ptr, ptr, ptr }
%struct._wmem_block_hdr_t = type { ptr, ptr }
%struct._wmem_block_free_t = type { ptr, ptr }
%struct._wmem_block_chunk_t = type { i32, i32 }

; Function Attrs: nounwind null_pointer_is_valid sspstrong uwtable
define internal void @wmem_block_add_to_block_list(ptr noundef %0, ptr noundef %1) #5 {
  %3 = alloca ptr, align 8
  %4 = alloca ptr, align 8
  store ptr %0, ptr %3, align 8
  store ptr %1, ptr %4, align 8
  %5 = load ptr, ptr %4, align 8
  %6 = getelementptr inbounds nuw %struct._wmem_block_hdr_t, ptr %5, i32 0, i32 0
  store ptr null, ptr %6, align 8
  %7 = load ptr, ptr %3, align 8
  %8 = getelementptr inbounds nuw %struct._wmem_block_allocator_t, ptr %7, i32 0, i32 0
  %9 = load ptr, ptr %8, align 8
  %10 = load ptr, ptr %4, align 8
  %11 = getelementptr inbounds nuw %struct._wmem_block_hdr_t, ptr %10, i32 0, i32 1
  store ptr %9, ptr %11, align 8
  %12 = load ptr, ptr %4, align 8
  %13 = getelementptr inbounds nuw %struct._wmem_block_hdr_t, ptr %12, i32 0, i32 1
  %14 = load ptr, ptr %13, align 8
  %15 = icmp ne ptr %14, null
  br i1 %15, label %16, label %22

16:                                               ; preds = %2
  %17 = load ptr, ptr %4, align 8
  %18 = load ptr, ptr %4, align 8
  %19 = getelementptr inbounds nuw %struct._wmem_block_hdr_t, ptr %18, i32 0, i32 1
  %20 = load ptr, ptr %19, align 8
  %21 = getelementptr inbounds nuw %struct._wmem_block_hdr_t, ptr %20, i32 0, i32 0
  store ptr %17, ptr %21, align 8
  br label %22

22:                                               ; preds = %16, %2
  %23 = load ptr, ptr %4, align 8
  %24 = load ptr, ptr %3, align 8
  %25 = getelementptr inbounds nuw %struct._wmem_block_allocator_t, ptr %24, i32 0, i32 0
  store ptr %23, ptr %25, align 8
  ret void
}

; Function Attrs: null_pointer_is_valid sspstrong uwtable
define internal void @wmem_block_gc(ptr noundef %0) #0 {
  %2 = alloca ptr, align 8
  %3 = alloca ptr, align 8
  %4 = alloca ptr, align 8
  %5 = alloca ptr, align 8
  %6 = alloca ptr, align 8
  %7 = alloca ptr, align 8
  store ptr %0, ptr %2, align 8
  call void @llvm.lifetime.start.p0(i64 8, ptr %3) #10
  %8 = load ptr, ptr %2, align 8
  store ptr %8, ptr %3, align 8
  call void @llvm.lifetime.start.p0(i64 8, ptr %4) #10
  call void @llvm.lifetime.start.p0(i64 8, ptr %5) #10
  call void @llvm.lifetime.start.p0(i64 8, ptr %6) #10
  call void @llvm.lifetime.start.p0(i64 8, ptr %7) #10
  %9 = load ptr, ptr %3, align 8
  %10 = getelementptr inbounds nuw %struct._wmem_block_allocator_t, ptr %9, i32 0, i32 0
  %11 = load ptr, ptr %10, align 8
  store ptr %11, ptr %4, align 8
  %12 = load ptr, ptr %3, align 8
  %13 = getelementptr inbounds nuw %struct._wmem_block_allocator_t, ptr %12, i32 0, i32 0
  store ptr null, ptr %13, align 8
  br label %14

14:                                               ; preds = %112, %1
  %15 = load ptr, ptr %4, align 8
  %16 = icmp ne ptr %15, null
  br i1 %16, label %17, label %114

17:                                               ; preds = %14
  %18 = load ptr, ptr %4, align 8
  %19 = getelementptr i8, ptr %18, i64 16
  store ptr %19, ptr %6, align 8
  %20 = load ptr, ptr %4, align 8
  %21 = getelementptr inbounds nuw %struct._wmem_block_hdr_t, ptr %20, i32 0, i32 1
  %22 = load ptr, ptr %21, align 8
  store ptr %22, ptr %5, align 8
  %23 = load ptr, ptr %6, align 8
  %24 = getelementptr inbounds nuw %struct._wmem_block_chunk_t, ptr %23, i32 0, i32 1
  %25 = load i32, ptr %24, align 4
  %26 = lshr i32 %25, 2
  %27 = and i32 %26, 1
  %28 = icmp ne i32 %27, 0
  br i1 %28, label %109, label %29

29:                                               ; preds = %17
  %30 = load ptr, ptr %6, align 8
  %31 = getelementptr inbounds nuw %struct._wmem_block_chunk_t, ptr %30, i32 0, i32 1
  %32 = load i32, ptr %31, align 4
  %33 = lshr i32 %32, 1
  %34 = and i32 %33, 1
  %35 = icmp ne i32 %34, 0
  br i1 %35, label %109, label %36

36:                                               ; preds = %29
  %37 = load ptr, ptr %6, align 8
  %38 = getelementptr inbounds nuw %struct._wmem_block_chunk_t, ptr %37, i32 0, i32 1
  %39 = load i32, ptr %38, align 4
  %40 = and i32 %39, 1
  %41 = icmp ne i32 %40, 0
  br i1 %41, label %42, label %109

42:                                               ; preds = %36
  %43 = load ptr, ptr %6, align 8
  %44 = getelementptr i8, ptr %43, i64 16
  store ptr %44, ptr %7, align 8
  %45 = load ptr, ptr %7, align 8
  %46 = getelementptr inbounds nuw %struct._wmem_block_free_t, ptr %45, i32 0, i32 1
  %47 = load ptr, ptr %46, align 8
  %48 = icmp ne ptr %47, null
  br i1 %48, label %49, label %58

49:                                               ; preds = %42
  %50 = load ptr, ptr %7, align 8
  %51 = getelementptr inbounds nuw %struct._wmem_block_free_t, ptr %50, i32 0, i32 0
  %52 = load ptr, ptr %51, align 8
  %53 = load ptr, ptr %7, align 8
  %54 = getelementptr inbounds nuw %struct._wmem_block_free_t, ptr %53, i32 0, i32 1
  %55 = load ptr, ptr %54, align 8
  %56 = getelementptr i8, ptr %55, i64 16
  %57 = getelementptr inbounds nuw %struct._wmem_block_free_t, ptr %56, i32 0, i32 0
  store ptr %52, ptr %57, align 8
  br label %58

58:                                               ; preds = %49, %42
  %59 = load ptr, ptr %7, align 8
  %60 = getelementptr inbounds nuw %struct._wmem_block_free_t, ptr %59, i32 0, i32 0
  %61 = load ptr, ptr %60, align 8
  %62 = icmp ne ptr %61, null
  br i1 %62, label %63, label %72

63:                                               ; preds = %58
  %64 = load ptr, ptr %7, align 8
  %65 = getelementptr inbounds nuw %struct._wmem_block_free_t, ptr %64, i32 0, i32 1
  %66 = load ptr, ptr %65, align 8
  %67 = load ptr, ptr %7, align 8
  %68 = getelementptr inbounds nuw %struct._wmem_block_free_t, ptr %67, i32 0, i32 0
  %69 = load ptr, ptr %68, align 8
  %70 = getelementptr i8, ptr %69, i64 16
  %71 = getelementptr inbounds nuw %struct._wmem_block_free_t, ptr %70, i32 0, i32 1
  store ptr %66, ptr %71, align 8
  br label %72

72:                                               ; preds = %63, %58
  %73 = load ptr, ptr %3, align 8
  %74 = getelementptr inbounds nuw %struct._wmem_block_allocator_t, ptr %73, i32 0, i32 2
  %75 = load ptr, ptr %74, align 8
  %76 = load ptr, ptr %6, align 8
  %77 = icmp eq ptr %75, %76
  br i1 %77, label %78, label %94

78:                                               ; preds = %72
  %79 = load ptr, ptr %7, align 8
  %80 = getelementptr inbounds nuw %struct._wmem_block_free_t, ptr %79, i32 0, i32 1
  %81 = load ptr, ptr %80, align 8
  %82 = load ptr, ptr %6, align 8
  %83 = icmp eq ptr %81, %82
  br i1 %83, label %84, label %87

84:                                               ; preds = %78
  %85 = load ptr, ptr %3, align 8
  %86 = getelementptr inbounds nuw %struct._wmem_block_allocator_t, ptr %85, i32 0, i32 2
  store ptr null, ptr %86, align 8
  br label %93

87:                                               ; preds = %78
  %88 = load ptr, ptr %7, align 8
  %89 = getelementptr inbounds nuw %struct._wmem_block_free_t, ptr %88, i32 0, i32 1
  %90 = load ptr, ptr %89, align 8
  %91 = load ptr, ptr %3, align 8
  %92 = getelementptr inbounds nuw %struct._wmem_block_allocator_t, ptr %91, i32 0, i32 2
  store ptr %90, ptr %92, align 8
  br label %93

93:                                               ; preds = %87, %84
  br label %107

94:                                               ; preds = %72
  %95 = load ptr, ptr %3, align 8
  %96 = getelementptr inbounds nuw %struct._wmem_block_allocator_t, ptr %95, i32 0, i32 1
  %97 = load ptr, ptr %96, align 8
  %98 = load ptr, ptr %6, align 8
  %99 = icmp eq ptr %97, %98
  br i1 %99, label %100, label %106

100:                                              ; preds = %94
  %101 = load ptr, ptr %7, align 8
  %102 = getelementptr inbounds nuw %struct._wmem_block_free_t, ptr %101, i32 0, i32 1
  %103 = load ptr, ptr %102, align 8
  %104 = load ptr, ptr %3, align 8
  %105 = getelementptr inbounds nuw %struct._wmem_block_allocator_t, ptr %104, i32 0, i32 1
  store ptr %103, ptr %105, align 8
  br label %106

106:                                              ; preds = %100, %94
  br label %107

107:                                              ; preds = %106, %93
  %108 = load ptr, ptr %4, align 8
  call void @wmem_free(ptr noundef null, ptr noundef %108)
  br label %112

109:                                              ; preds = %36, %29, %17
  %110 = load ptr, ptr %3, align 8
  %111 = load ptr, ptr %4, align 8
  call void @wmem_block_add_to_block_list(ptr noundef %110, ptr noundef %111)
  br label %112

112:                                              ; preds = %109, %107
  %113 = load ptr, ptr %5, align 8
  store ptr %113, ptr %4, align 8
  br label %14, !llvm.loop !12

114:                                              ; preds = %14
  call void @llvm.lifetime.end.p0(i64 8, ptr %7) #10
  call void @llvm.lifetime.end.p0(i64 8, ptr %6) #10
  call void @llvm.lifetime.end.p0(i64 8, ptr %5) #10
  call void @llvm.lifetime.end.p0(i64 8, ptr %4) #10
  call void @llvm.lifetime.end.p0(i64 8, ptr %3) #10
  ret void
}